target datalayout = "e-m:e-p270:32:32-p271:32:32-p272:64:64-i64:64-i128:128-f80:128-n8:16:32:64-S128"
target triple = "x86_64-pc-linux-gnu"

%struct.RmgrData = type { ptr, ptr, ptr, ptr, ptr, ptr, ptr, ptr }
%struct.XLogReaderRoutine = type { ptr, ptr, ptr }
%struct.XLogReaderState = type { %struct.XLogReaderRoutine, i64, ptr, i64, i64, i64, i64, i64, i64, i64, i64, ptr, ptr, i64, i8, ptr, ptr, ptr, ptr, ptr, i32, %struct.WALSegmentContext, %struct.WALOpenSegment, i32, i64, i32, i64, i32, i64, i32, ptr, i32, ptr, i8, i8 }
%struct.WALSegmentContext = type { [1024 x i8], i32 }
%struct.WALOpenSegment = type { i32, i64, i32 }
%struct.DecodedXLogRecord = type { i64, i8, ptr, i64, i64, %struct.XLogRecord, i16, i32, ptr, i32, i32, [0 x %struct.DecodedBkpBlock] }
%struct.XLogRecord = type { i32, i32, i64, i8, i8, i32 }
%struct.DecodedBkpBlock = type { i8, %struct.RelFileLocator, i32, i32, i32, i8, i8, i8, ptr, i16, i16, i16, i8, i8, ptr, i16, i16 }
%struct.RelFileLocator = type { i32, i32, i32 }

@.str.58 = private unnamed_addr constant [15 x i8] c"UNKNOWN (%X): \00", align 1
@.str.59 = private unnamed_addr constant [5 x i8] c"%s: \00", align 1
@RmgrTable = external global [0 x %struct.RmgrData], align 8

; Function Attrs: inlinehint nounwind uwtable
define internal zeroext i1 @RmgrIdExists(i8 noundef zeroext %0) #7 {
  %2 = alloca i8, align 1
  store i8 %0, ptr %2, align 1
  %3 = load i8, ptr %2, align 1
  %4 = zext i8 %3 to i64
  %5 = getelementptr inbounds nuw [0 x %struct.RmgrData], ptr @RmgrTable, i64 0, i64 %4
  %6 = getelementptr inbounds nuw %struct.RmgrData, ptr %5, i32 0, i32 0
  %7 = load ptr, ptr %6, align 8
  %8 = icmp ne ptr %7, null
  ret i1 %8
}

; Function Attrs: inlinehint nounwind uwtable
define internal void @GetRmgr(ptr dead_on_unwind noalias writable sret(%struct.RmgrData) align 8 %0, i8 noundef zeroext %1) #7 {
  %3 = alloca i8, align 1
  store i8 %1, ptr %3, align 1
  %4 = load i8, ptr %3, align 1
  %5 = call zeroext i1 @RmgrIdExists(i8 noundef zeroext %4)
  %6 = xor i1 %5, true
  %7 = zext i1 %6 to i32
  %8 = icmp ne i32 %7, 0
  %9 = zext i1 %8 to i32
  %10 = sext i32 %9 to i64
  %11 = call i64 @llvm.expect.i64(i64 %10, i64 0)
  %12 = icmp ne i64 %11, 0
  br i1 %12, label %13, label %15

13:                                               ; preds = %2
  %14 = load i8, ptr %3, align 1
  call void @RmgrNotFound(i8 noundef zeroext %14)
  br label %15

15:                                               ; preds = %13, %2
  %16 = load i8, ptr %3, align 1
  %17 = zext i8 %16 to i64
  %18 = getelementptr inbounds nuw [0 x %struct.RmgrData], ptr @RmgrTable, i64 0, i64 %17
  call void @llvm.memcpy.p0.p0.i64(ptr align 8 %0, ptr align 8 %18, i64 64, i1 false)
  ret void
}

; Function Attrs: nounwind uwtable
define dso_local void @xlog_outdesc(ptr noundef %0, ptr noundef %1) #0 {
  %3 = alloca ptr, align 8
  %4 = alloca ptr, align 8
  %5 = alloca %struct.RmgrData, align 8
  %6 = alloca i8, align 1
  %7 = alloca ptr, align 8
  store ptr %0, ptr %3, align 8
  store ptr %1, ptr %4, align 8
  call void @llvm.lifetime.start.p0(i64 64, ptr %5) #14
  %8 = load ptr, ptr %4, align 8
  %9 = getelementptr inbounds nuw %struct.XLogReaderState, ptr %8, i32 0, i32 11
  %10 = load ptr, ptr %9, align 8
  %11 = getelementptr inbounds nuw %struct.DecodedXLogRecord, ptr %10, i32 0, i32 5
  %12 = getelementptr inbounds nuw %struct.XLogRecord, ptr %11, i32 0, i32 4
  %13 = load i8, ptr %12, align 1
  call void @GetRmgr(ptr dead_on_unwind writable sret(%struct.RmgrData) align 8 %5, i8 noundef zeroext %13)
  call void @llvm.lifetime.start.p0(i64 1, ptr %6) #14
  %14 = load ptr, ptr %4, align 8
  %15 = getelementptr inbounds nuw %struct.XLogReaderState, ptr %14, i32 0, i32 11
  %16 = load ptr, ptr %15, align 8
  %17 = getelementptr inbounds nuw %struct.DecodedXLogRecord, ptr %16, i32 0, i32 5
  %18 = getelementptr inbounds nuw %struct.XLogRecord, ptr %17, i32 0, i32 3
  %19 = load i8, ptr %18, align 8
  store i8 %19, ptr %6, align 1
  call void @llvm.lifetime.start.p0(i64 8, ptr %7) #14
  %20 = load ptr, ptr %3, align 8
  %21 = getelementptr inbounds nuw %struct.RmgrData, ptr %5, i32 0, i32 0
  %22 = load ptr, ptr %21, align 8
  call void @appendStringInfoString(ptr noundef %20, ptr noundef %22)
  %23 = load ptr, ptr %3, align 8
  call void @appendStringInfoChar(ptr noundef %23, i8 noundef signext 47)
  %24 = getelementptr inbounds nuw %struct.RmgrData, ptr %5, i32 0, i32 3
  %25 = load ptr, ptr %24, align 8
  %26 = load i8, ptr %6, align 1
  %27 = call ptr %25(i8 noundef zeroext %26)
  store ptr %27, ptr %7, align 8
  %28 = load ptr, ptr %7, align 8
  %29 = icmp eq ptr %28, null
  br i1 %29, label %30, label %35

30:                                               ; preds = %2
  %31 = load ptr, ptr %3, align 8
  %32 = load i8, ptr %6, align 1
  %33 = zext i8 %32 to i32
  %34 = and i32 %33, -16
  call void (ptr, ptr, ...) @appendStringInfo(ptr noundef %31, ptr noundef @.str.58, i32 noundef %34)
  br label %38

35:                                               ; preds = %2
  %36 = load ptr, ptr %3, align 8
  %37 = load ptr, ptr %7, align 8
  call void (ptr, ptr, ...) @appendStringInfo(ptr noundef %36, ptr noundef @.str.59, ptr noundef %37)
  br label %38

38:                                               ; preds = %35, %30
  %39 = getelementptr inbounds nuw %struct.RmgrData, ptr %5, i32 0, i32 2
  %40 = load ptr, ptr %39, align 8
  %41 = load ptr, ptr %3, align 8
  %42 = load ptr, ptr %4, align 8
  call void %40(ptr noundef %41, ptr noundef %42)
  call void @llvm.lifetime.end.p0(i64 8, ptr %7) #14
  call void @llvm.lifetime.end.p0(i64 1, ptr %6) #14
  call void @llvm.lifetime.end.p0(i64 64, ptr %5) #14
  ret void
}