; Function Attrs: nounwind uwtable
define dso_local void @xlog_outdesc(ptr noundef %0, ptr noundef %1) local_unnamed_addr #2 {
  %3 = getelementptr inbounds nuw i8, ptr %1, i64 104
  %4 = load ptr, ptr %3, align 8
  %5 = getelementptr inbounds nuw i8, ptr %4, i64 57
  %6 = load i8, ptr %5, align 1
  %7 = zext i8 %6 to i64
  %8 = getelementptr inbounds nuw [0 x %struct.RmgrData], ptr @RmgrTable, i64 0, i64 %7
  %9 = load ptr, ptr %8, align 8, !noalias !32
  %.not.i = icmp eq ptr %9, null
  br i1 %.not.i, label %10, label %GetRmgr.exit, !prof !17

10:                                               ; preds = %2
  tail call void @RmgrNotFound(i8 noundef zeroext %6) #23, !noalias !32
  %.sroa.0.0.copyload.pre = load ptr, ptr %8, align 8
  %.pre = load ptr, ptr %3, align 8
  br label %GetRmgr.exit

GetRmgr.exit:                                     ; preds = %2, %10
  %11 = phi ptr [ %4, %2 ], [ %.pre, %10 ]
  %.sroa.0.0.copyload = phi ptr [ %9, %2 ], [ %.sroa.0.0.copyload.pre, %10 ]
  %.sroa.411.0..sroa_idx = getelementptr inbounds nuw i8, ptr %8, i64 16
  %.sroa.411.0.copyload = load ptr, ptr %.sroa.411.0..sroa_idx, align 8
  %.sroa.5.0..sroa_idx = getelementptr inbounds nuw i8, ptr %8, i64 24
  %.sroa.5.0.copyload = load ptr, ptr %.sroa.5.0..sroa_idx, align 8
  %12 = getelementptr inbounds nuw i8, ptr %11, i64 56
  %13 = load i8, ptr %12, align 8
  tail call void @appendStringInfoString(ptr noundef %0, ptr noundef %.sroa.0.0.copyload) #23
  tail call void @appendStringInfoChar(ptr noundef %0, i8 noundef signext 47) #23
  %14 = tail call ptr %.sroa.5.0.copyload(i8 noundef zeroext %13) #23
  %15 = icmp eq ptr %14, null
  br i1 %15, label %16, label %19

16:                                               ; preds = %GetRmgr.exit
  %17 = and i8 %13, -16
  %18 = zext i8 %17 to i32
  tail call void (ptr, ptr, ...) @appendStringInfo(ptr noundef %0, ptr noundef nonnull @.str.58, i32 noundef %18) #23
  br label %20

19:                                               ; preds = %GetRmgr.exit
  tail call void (ptr, ptr, ...) @appendStringInfo(ptr noundef %0, ptr noundef nonnull @.str.59, ptr noundef nonnull %14) #23
  br label %20

20:                                               ; preds = %19, %16
  tail call void %.sroa.411.0.copyload(ptr noundef %0, ptr noundef nonnull %1) #23
  ret void
}